target datalayout = "e-m:e-p270:32:32-p271:32:32-p272:64:64-i64:64-i128:128-f80:128-n8:16:32:64-S128"
target triple = "x86_64-pc-linux-gnu"

%struct.expert_field = type { i32, i32 }

@hf_nfapi_earfcn = internal global i32 0, align 4
@hf_nfapi_downlink_channel_bandwidth = internal global i32 0, align 4
@hf_nfapi_timeout = internal global i32 0, align 4
@hf_nfapi_pci = internal global i32 0, align 4
@hf_nfapi_number_of_tx_antenna = internal global i32 0, align 4
@hf_nfapi_phich_configuration = internal global i32 0, align 4
@hf_nfapi_number_of_si_periodicity = internal global i32 0, align 4
@hf_nfapi_si_window_length = internal global i32 0, align 4
@ett_nfapi_si_periodicity_list = internal global i32 0, align 4
@ei_invalid_range = internal global %struct.expert_field zeroinitializer, align 4
@.str.1839 = private unnamed_addr constant [3 x i8] c"%s\00", align 1
@.str.1840 = private unnamed_addr constant [5 x i8] c"[%d]\00", align 1
@.str.2332 = private unnamed_addr constant [49 x i8] c"Invalid bandwidth value [6, 15, 25, 50, 75, 100]\00", align 1
@.str.2342 = private unnamed_addr constant [45 x i8] c"Invalid number of tx antenna value [1, 2, 4]\00", align 1
@.str.2343 = private unnamed_addr constant [22 x i8] c"Number SI Periodicity\00", align 1
@.str.2344 = private unnamed_addr constant [57 x i8] c"Invalid si window length value [1, 2, 5, 10, 15, 20, 40]\00", align 1

; Function Attrs: nounwind uwtable
define internal void @dissect_array_value(ptr noundef %0, ptr noundef %1, ptr noundef %2, i32 noundef %3, i32 noundef %4, ptr noundef %5) #0 {
  %7 = alloca ptr, align 8
  %8 = alloca ptr, align 8
  %9 = alloca ptr, align 8
  %10 = alloca i32, align 4
  %11 = alloca i32, align 4
  %12 = alloca ptr, align 8
  %13 = alloca i16, align 2
  store ptr %0, ptr %7, align 8
  store ptr %1, ptr %8, align 8
  store ptr %2, ptr %9, align 8
  store i32 %3, ptr %10, align 4
  store i32 %4, ptr %11, align 4
  store ptr %5, ptr %12, align 8
  %14 = load i32, ptr %11, align 4
  %15 = icmp ugt i32 %14, 0
  br i1 %15, label %16, label %41

16:                                               ; preds = %6
  %17 = load ptr, ptr %7, align 8
  %18 = load i32, ptr %10, align 4
  %19 = load ptr, ptr %9, align 8
  %20 = call ptr (ptr, i32, i32, ptr, ...) @ptvcursor_add_text_with_subtree(ptr noundef %17, i32 noundef -1, i32 noundef %18, ptr noundef @.str.1839, ptr noundef %19)
  store i16 0, ptr %13, align 2
  br label %21

21:                                               ; preds = %36, %16
  %22 = load i16, ptr %13, align 2
  %23 = zext i16 %22 to i32
  %24 = load i32, ptr %11, align 4
  %25 = icmp ult i32 %23, %24
  br i1 %25, label %26, label %39

26:                                               ; preds = %21
  %27 = load ptr, ptr %7, align 8
  %28 = load i32, ptr %10, align 4
  %29 = load i16, ptr %13, align 2
  %30 = zext i16 %29 to i32
  %31 = call ptr (ptr, i32, i32, ptr, ...) @ptvcursor_add_text_with_subtree(ptr noundef %27, i32 noundef -1, i32 noundef %28, ptr noundef @.str.1840, i32 noundef %30)
  %32 = load ptr, ptr %12, align 8
  %33 = load ptr, ptr %7, align 8
  %34 = load ptr, ptr %8, align 8
  call void %32(ptr noundef %33, ptr noundef %34)
  %35 = load ptr, ptr %7, align 8
  call void @ptvcursor_pop_subtree(ptr noundef %35)
  br label %36

36:                                               ; preds = %26
  %37 = load i16, ptr %13, align 2
  %38 = add i16 %37, 1
  store i16 %38, ptr %13, align 2
  br label %21, !llvm.loop !4

39:                                               ; preds = %21
  %40 = load ptr, ptr %7, align 8
  call void @ptvcursor_pop_subtree(ptr noundef %40)
  br label %41

41:                                               ; preds = %39, %6
  ret void
}

; Function Attrs: nounwind uwtable
define internal void @dissect_lte_system_information_request_value(ptr noundef %0, ptr noundef %1) #0 {
  %3 = alloca ptr, align 8
  %4 = alloca ptr, align 8
  %5 = alloca ptr, align 8
  %6 = alloca i32, align 4
  %7 = alloca i32, align 4
  store ptr %0, ptr %3, align 8
  store ptr %1, ptr %4, align 8
  %8 = load ptr, ptr %3, align 8
  %9 = load i32, ptr @hf_nfapi_earfcn, align 4
  %10 = call ptr @ptvcursor_add(ptr noundef %8, i32 noundef %9, i32 noundef 2, i32 noundef 0)
  %11 = load ptr, ptr %3, align 8
  %12 = load i32, ptr @hf_nfapi_pci, align 4
  %13 = call ptr @ptvcursor_add(ptr noundef %11, i32 noundef %12, i32 noundef 2, i32 noundef 0)
  %14 = load ptr, ptr %3, align 8
  %15 = load i32, ptr @hf_nfapi_downlink_channel_bandwidth, align 4
  %16 = call ptr @ptvcursor_add_ret_uint(ptr noundef %14, i32 noundef %15, i32 noundef 2, i32 noundef 0, ptr noundef %6)
  store ptr %16, ptr %5, align 8
  %17 = load i32, ptr %6, align 4
  %18 = icmp eq i32 %17, 6
  br i1 %18, label %38, label %19

19:                                               ; preds = %2
  %20 = load i32, ptr %6, align 4
  %21 = icmp eq i32 %20, 15
  br i1 %21, label %38, label %22

22:                                               ; preds = %19
  %23 = load i32, ptr %6, align 4
  %24 = icmp eq i32 %23, 25
  br i1 %24, label %38, label %25

25:                                               ; preds = %22
  %26 = load i32, ptr %6, align 4
  %27 = icmp eq i32 %26, 50
  br i1 %27, label %38, label %28

28:                                               ; preds = %25
  %29 = load i32, ptr %6, align 4
  %30 = icmp eq i32 %29, 75
  br i1 %30, label %38, label %31

31:                                               ; preds = %28
  %32 = load i32, ptr %6, align 4
  %33 = icmp eq i32 %32, 100
  br i1 %33, label %38, label %34

34:                                               ; preds = %31
  %35 = load ptr, ptr %4, align 8
  %36 = load ptr, ptr %5, align 8
  %37 = call ptr (ptr, ptr, ptr, ptr, ...) @expert_add_info_format(ptr noundef %35, ptr noundef %36, ptr noundef @ei_invalid_range, ptr noundef @.str.2332)
  br label %38

38:                                               ; preds = %34, %31, %28, %25, %22, %19, %2
  %39 = load ptr, ptr %3, align 8
  %40 = load i32, ptr @hf_nfapi_phich_configuration, align 4
  %41 = call ptr @ptvcursor_add(ptr noundef %39, i32 noundef %40, i32 noundef 1, i32 noundef 0)
  %42 = load ptr, ptr %3, align 8
  %43 = load i32, ptr @hf_nfapi_number_of_tx_antenna, align 4
  %44 = call ptr @ptvcursor_add_ret_uint(ptr noundef %42, i32 noundef %43, i32 noundef 1, i32 noundef 0, ptr noundef %6)
  store ptr %44, ptr %5, align 8
  %45 = load i32, ptr %6, align 4
  %46 = icmp eq i32 %45, 1
  br i1 %46, label %57, label %47

47:                                               ; preds = %38
  %48 = load i32, ptr %6, align 4
  %49 = icmp eq i32 %48, 2
  br i1 %49, label %57, label %50

50:                                               ; preds = %47
  %51 = load i32, ptr %6, align 4
  %52 = icmp eq i32 %51, 4
  br i1 %52, label %57, label %53

53:                                               ; preds = %50
  %54 = load ptr, ptr %4, align 8
  %55 = load ptr, ptr %5, align 8
  %56 = call ptr (ptr, ptr, ptr, ptr, ...) @expert_add_info_format(ptr noundef %54, ptr noundef %55, ptr noundef @ei_invalid_range, ptr noundef @.str.2342)
  br label %57

57:                                               ; preds = %53, %50, %47, %38
  %58 = load ptr, ptr %3, align 8
  %59 = load i32, ptr @hf_nfapi_number_of_si_periodicity, align 4
  %60 = call ptr @ptvcursor_add_ret_uint(ptr noundef %58, i32 noundef %59, i32 noundef 1, i32 noundef 0, ptr noundef %7)
  %61 = load ptr, ptr %3, align 8
  %62 = load ptr, ptr %4, align 8
  %63 = load i32, ptr @ett_nfapi_si_periodicity_list, align 4
  %64 = load i32, ptr %7, align 4
  call void @dissect_array_value(ptr noundef %61, ptr noundef %62, ptr noundef @.str.2343, i32 noundef %63, i32 noundef %64, ptr noundef @dissect_si_periodicity_value)
  %65 = load ptr, ptr %3, align 8
  %66 = load i32, ptr @hf_nfapi_si_window_length, align 4
  %67 = call ptr @ptvcursor_add_ret_uint(ptr noundef %65, i32 noundef %66, i32 noundef 1, i32 noundef 0, ptr noundef %6)
  store ptr %67, ptr %5, align 8
  %68 = load i32, ptr %6, align 4
  %69 = icmp eq i32 %68, 1
  br i1 %69, label %92, label %70

70:                                               ; preds = %57
  %71 = load i32, ptr %6, align 4
  %72 = icmp eq i32 %71, 2
  br i1 %72, label %92, label %73

73:                                               ; preds = %70
  %74 = load i32, ptr %6, align 4
  %75 = icmp eq i32 %74, 5
  br i1 %75, label %92, label %76

76:                                               ; preds = %73
  %77 = load i32, ptr %6, align 4
  %78 = icmp eq i32 %77, 10
  br i1 %78, label %92, label %79

79:                                               ; preds = %76
  %80 = load i32, ptr %6, align 4
  %81 = icmp eq i32 %80, 15
  br i1 %81, label %92, label %82

82:                                               ; preds = %79
  %83 = load i32, ptr %6, align 4
  %84 = icmp eq i32 %83, 20
  br i1 %84, label %92, label %85

85:                                               ; preds = %82
  %86 = load i32, ptr %6, align 4
  %87 = icmp eq i32 %86, 40
  br i1 %87, label %92, label %88

88:                                               ; preds = %85
  %89 = load ptr, ptr %4, align 8
  %90 = load ptr, ptr %5, align 8
  %91 = call ptr (ptr, ptr, ptr, ptr, ...) @expert_add_info_format(ptr noundef %89, ptr noundef %90, ptr noundef @ei_invalid_range, ptr noundef @.str.2344)
  br label %92

92:                                               ; preds = %88, %85, %82, %79, %76, %73, %70, %57
  %93 = load ptr, ptr %3, align 8
  %94 = load i32, ptr @hf_nfapi_timeout, align 4
  %95 = call ptr @ptvcursor_add(ptr noundef %93, i32 noundef %94, i32 noundef 4, i32 noundef 0)
  ret void
}