; Function Attrs: nounwind uwtable
define internal void @dissect_lte_system_information_request_value(ptr noundef %0, ptr noundef %1) #0 {
  %3 = alloca i32, align 4
  %4 = alloca i32, align 4
  %5 = alloca i32, align 4
  %6 = load i32, ptr @hf_nfapi_earfcn, align 4
  %7 = tail call ptr @ptvcursor_add(ptr noundef %0, i32 noundef %6, i32 noundef 2, i32 noundef 0) #7
  %8 = load i32, ptr @hf_nfapi_pci, align 4
  %9 = tail call ptr @ptvcursor_add(ptr noundef %0, i32 noundef %8, i32 noundef 2, i32 noundef 0) #7
  %10 = load i32, ptr @hf_nfapi_downlink_channel_bandwidth, align 4
  %11 = call ptr @ptvcursor_add_ret_uint(ptr noundef %0, i32 noundef %10, i32 noundef 2, i32 noundef 0, ptr noundef nonnull %4) #7
  %12 = load i32, ptr %4, align 4
  switch i32 %12, label %13 [
    i32 100, label %15
    i32 75, label %15
    i32 50, label %15
    i32 25, label %15
    i32 15, label %15
    i32 6, label %15
  ]

13:                                               ; preds = %2
  %14 = call ptr (ptr, ptr, ptr, ptr, ...) @expert_add_info_format(ptr noundef %1, ptr noundef %11, ptr noundef nonnull @ei_invalid_range, ptr noundef nonnull @.str.2332) #7
  br label %15

15:                                               ; preds = %2, %2, %2, %2, %2, %2, %13
  %16 = load i32, ptr @hf_nfapi_phich_configuration, align 4
  %17 = call ptr @ptvcursor_add(ptr noundef %0, i32 noundef %16, i32 noundef 1, i32 noundef 0) #7
  %18 = load i32, ptr @hf_nfapi_number_of_tx_antenna, align 4
  %19 = call ptr @ptvcursor_add_ret_uint(ptr noundef %0, i32 noundef %18, i32 noundef 1, i32 noundef 0, ptr noundef nonnull %4) #7
  %20 = load i32, ptr %4, align 4
  switch i32 %20, label %21 [
    i32 4, label %23
    i32 2, label %23
    i32 1, label %23
  ]

21:                                               ; preds = %15
  %22 = call ptr (ptr, ptr, ptr, ptr, ...) @expert_add_info_format(ptr noundef %1, ptr noundef %19, ptr noundef nonnull @ei_invalid_range, ptr noundef nonnull @.str.2342) #7
  br label %23

23:                                               ; preds = %15, %15, %15, %21
  %24 = load i32, ptr @hf_nfapi_number_of_si_periodicity, align 4
  %25 = call ptr @ptvcursor_add_ret_uint(ptr noundef %0, i32 noundef %24, i32 noundef 1, i32 noundef 0, ptr noundef nonnull %5) #7
  %26 = load i32, ptr @ett_nfapi_si_periodicity_list, align 4
  %27 = load i32, ptr %5, align 4
  %.not.i = icmp eq i32 %27, 0
  br i1 %.not.i, label %dissect_array_value.exit, label %28

28:                                               ; preds = %23
  %29 = call ptr (ptr, i32, i32, ptr, ...) @ptvcursor_add_text_with_subtree(ptr noundef %0, i32 noundef -1, i32 noundef %26, ptr noundef nonnull @.str.1839, ptr noundef nonnull @.str.2343) #7
  br label %30

30:                                               ; preds = %dissect_si_periodicity_value.exit, %28
  %31 = phi i32 [ 0, %28 ], [ %47, %dissect_si_periodicity_value.exit ]
  %.016.i = phi i16 [ 0, %28 ], [ %46, %dissect_si_periodicity_value.exit ]
  %32 = call ptr (ptr, i32, i32, ptr, ...) @ptvcursor_add_text_with_subtree(ptr noundef %0, i32 noundef -1, i32 noundef %26, ptr noundef nonnull @.str.1840, i32 noundef %31) #7
  call void @llvm.lifetime.start.p0(i64 4, ptr nonnull %3)
  %33 = load i32, ptr @hf_nfapi_si_periodicity, align 4
  %34 = call ptr @ptvcursor_add_ret_uint(ptr noundef %0, i32 noundef %33, i32 noundef 1, i32 noundef 0, ptr noundef nonnull %3) #7
  %35 = load i32, ptr %3, align 4
  %36 = icmp ugt i32 %35, 7
  br i1 %36, label %37, label %39

37:                                               ; preds = %30
  %38 = call ptr (ptr, ptr, ptr, ptr, ...) @expert_add_info_format(ptr noundef %1, ptr noundef %34, ptr noundef nonnull @ei_invalid_range, ptr noundef nonnull @.str.2345) #7
  br label %39

39:                                               ; preds = %37, %30
  %40 = load i32, ptr @hf_nfapi_si_index, align 4
  %41 = call ptr @ptvcursor_add_ret_uint(ptr noundef %0, i32 noundef %40, i32 noundef 1, i32 noundef 0, ptr noundef nonnull %3) #7
  %42 = load i32, ptr %3, align 4
  %43 = icmp ugt i32 %42, 32
  br i1 %43, label %44, label %dissect_si_periodicity_value.exit

44:                                               ; preds = %39
  %45 = call ptr (ptr, ptr, ptr, ptr, ...) @expert_add_info_format(ptr noundef %1, ptr noundef %41, ptr noundef nonnull @ei_invalid_range, ptr noundef nonnull @.str.2346) #7
  br label %dissect_si_periodicity_value.exit

dissect_si_periodicity_value.exit:                ; preds = %39, %44
  call void @llvm.lifetime.end.p0(i64 4, ptr nonnull %3)
  call void @ptvcursor_pop_subtree(ptr noundef %0) #7
  %46 = add i16 %.016.i, 1
  %47 = zext i16 %46 to i32
  %48 = icmp ugt i32 %27, %47
  br i1 %48, label %30, label %49, !llvm.loop !4

49:                                               ; preds = %dissect_si_periodicity_value.exit
  call void @ptvcursor_pop_subtree(ptr noundef %0) #7
  br label %dissect_array_value.exit

dissect_array_value.exit:                         ; preds = %23, %49
  %50 = load i32, ptr @hf_nfapi_si_window_length, align 4
  %51 = call ptr @ptvcursor_add_ret_uint(ptr noundef %0, i32 noundef %50, i32 noundef 1, i32 noundef 0, ptr noundef nonnull %4) #7
  %52 = load i32, ptr %4, align 4
  switch i32 %52, label %53 [
    i32 40, label %55
    i32 20, label %55
    i32 15, label %55
    i32 10, label %55
    i32 5, label %55
    i32 2, label %55
    i32 1, label %55
  ]

53:                                               ; preds = %dissect_array_value.exit
  %54 = call ptr (ptr, ptr, ptr, ptr, ...) @expert_add_info_format(ptr noundef %1, ptr noundef %51, ptr noundef nonnull @ei_invalid_range, ptr noundef nonnull @.str.2344) #7
  br label %55

55:                                               ; preds = %dissect_array_value.exit, %dissect_array_value.exit, %dissect_array_value.exit, %dissect_array_value.exit, %dissect_array_value.exit, %dissect_array_value.exit, %dissect_array_value.exit, %53
  %56 = load i32, ptr @hf_nfapi_timeout, align 4
  %57 = call ptr @ptvcursor_add(ptr noundef %0, i32 noundef %56, i32 noundef 4, i32 noundef 0) #7
  ret void
}